target datalayout = "e-m:e-p270:32:32-p271:32:32-p272:64:64-i64:64-i128:128-f80:128-n8:16:32:64-S128"
target triple = "x86_64-pc-linux-gnu"

@g_ascii_table = external constant ptr, align 8

; Function Attrs: null_pointer_is_valid sspstrong uwtable
define internal i32 @megaco_tvb_skip_wsp_return(ptr noundef %0, i32 noundef %1) #0 {
  %3 = alloca ptr, align 8
  %4 = alloca i32, align 4
  %5 = alloca i32, align 4
  %6 = alloca i32, align 4
  store ptr %0, ptr %3, align 8
  store i32 %1, ptr %4, align 4
  call void @llvm.lifetime.start.p0(i64 4, ptr %5) #12
  %7 = load i32, ptr %4, align 4
  store i32 %7, ptr %5, align 4
  call void @llvm.lifetime.start.p0(i64 4, ptr %6) #12
  store i32 0, ptr %6, align 4
  %8 = load i32, ptr %4, align 4
  store i32 %8, ptr %5, align 4
  br label %9

9:                                                ; preds = %27, %2
  %10 = load i32, ptr %5, align 4
  %11 = load i32, ptr %6, align 4
  %12 = icmp sgt i32 %10, %11
  br i1 %12, label %13, label %24

13:                                               ; preds = %9
  %14 = load ptr, ptr @g_ascii_table, align 8
  %15 = load ptr, ptr %3, align 8
  %16 = load i32, ptr %5, align 4
  %17 = call zeroext i8 @tvb_get_uint8(ptr noundef %15, i32 noundef %16)
  %18 = zext i8 %17 to i64
  %19 = getelementptr i16, ptr %14, i64 %18
  %20 = load i16, ptr %19, align 2
  %21 = zext i16 %20 to i32
  %22 = and i32 %21, 256
  %23 = icmp ne i32 %22, 0
  br label %24

24:                                               ; preds = %13, %9
  %25 = phi i1 [ false, %9 ], [ %23, %13 ]
  br i1 %25, label %26, label %30

26:                                               ; preds = %24
  br label %27

27:                                               ; preds = %26
  %28 = load i32, ptr %5, align 4
  %29 = add i32 %28, -1
  store i32 %29, ptr %5, align 4
  br label %9, !llvm.loop !19

30:                                               ; preds = %24
  %31 = load i32, ptr %5, align 4
  %32 = add i32 %31, 1
  store i32 %32, ptr %5, align 4
  %33 = load i32, ptr %5, align 4
  call void @llvm.lifetime.end.p0(i64 4, ptr %6) #12
  call void @llvm.lifetime.end.p0(i64 4, ptr %5) #12
  ret i32 %33
}