; Function Attrs: null_pointer_is_valid sspstrong uwtable
define internal fastcc noundef i32 @megaco_tvb_skip_wsp_return(ptr noundef %0, i32 noundef %1) unnamed_addr #0 {
  %3 = icmp sgt i32 %1, 0
  br i1 %3, label %.lr.ph, label %.critedge

.lr.ph:                                           ; preds = %2
  %4 = load ptr, ptr @g_ascii_table, align 8
  br label %5

5:                                                ; preds = %.lr.ph, %11
  %.08 = phi i32 [ %1, %.lr.ph ], [ %12, %11 ]
  %6 = tail call zeroext i8 @tvb_get_uint8(ptr noundef %0, i32 noundef %.08)
  %7 = zext i8 %6 to i64
  %8 = getelementptr i16, ptr %4, i64 %7
  %9 = load i16, ptr %8, align 2
  %10 = and i16 %9, 256
  %.not = icmp eq i16 %10, 0
  br i1 %.not, label %.critedge, label %11

11:                                               ; preds = %5
  %12 = add nsw i32 %.08, -1
  %13 = icmp sgt i32 %.08, 1
  br i1 %13, label %5, label %.critedge, !llvm.loop !14

.critedge:                                        ; preds = %5, %11, %2
  %.0.lcssa = phi i32 [ %1, %2 ], [ 0, %11 ], [ %.08, %5 ]
  %14 = add i32 %.0.lcssa, 1
  ret i32 %14
}